; Function Attrs: nounwind uwtable
define i32 @pg_fprintf(ptr noundef %0, ptr noundef %1, ...) local_unnamed_addr #0 {
  %3 = alloca %struct.PrintfTarget, align 8
  %4 = alloca [1024 x i8], align 16
  %5 = alloca [1 x %struct.__va_list_tag], align 16
  call void @llvm.lifetime.start.p0(i64 24, ptr nonnull %5) #14
  call void @llvm.va_start.p0(ptr nonnull %5)
  call void @llvm.lifetime.start.p0(i64 40, ptr nonnull %3) #14
  call void @llvm.lifetime.start.p0(i64 1024, ptr nonnull %4) #14
  %6 = icmp eq ptr %0, null
  br i1 %6, label %7, label %9

7:                                                ; preds = %2
  %8 = tail call ptr @__errno_location() #15
  store i32 22, ptr %8, align 4
  br label %pg_vfprintf.exit

9:                                                ; preds = %2
  store ptr %4, ptr %3, align 8
  %10 = getelementptr inbounds nuw i8, ptr %3, i64 8
  store ptr %4, ptr %10, align 8
  %11 = getelementptr inbounds nuw i8, ptr %4, i64 1024
  %12 = getelementptr inbounds nuw i8, ptr %3, i64 16
  store ptr %11, ptr %12, align 8
  %13 = getelementptr inbounds nuw i8, ptr %3, i64 24
  store ptr %0, ptr %13, align 8
  %14 = getelementptr inbounds nuw i8, ptr %3, i64 32
  store i32 0, ptr %14, align 8
  %15 = getelementptr inbounds nuw i8, ptr %3, i64 36
  store i8 0, ptr %15, align 4
  call fastcc void @dopr(ptr noundef %3, ptr noundef %1, ptr noundef nonnull %5)
  %16 = load ptr, ptr %3, align 8
  %17 = load ptr, ptr %10, align 8
  %18 = load i8, ptr %15, align 4, !range !3, !noundef !4
  %19 = trunc nuw i8 %18 to i1
  %20 = icmp eq ptr %16, %17
  %or.cond.not.i.i = select i1 %19, i1 true, i1 %20
  br i1 %or.cond.not.i.i, label %.flushbuffer.exit_crit_edge.i, label %21

.flushbuffer.exit_crit_edge.i:                    ; preds = %9
  %.pre.i = load i32, ptr %14, align 8
  br label %flushbuffer.exit.i

21:                                               ; preds = %9
  %22 = ptrtoint ptr %17 to i64
  %23 = ptrtoint ptr %16 to i64
  %24 = sub i64 %23, %22
  %25 = load ptr, ptr %13, align 8
  %26 = call i64 @fwrite(ptr noundef %17, i64 noundef 1, i64 noundef %24, ptr noundef %25)
  %27 = load i32, ptr %14, align 8
  %28 = trunc i64 %26 to i32
  %29 = add i32 %27, %28
  %.not.i.i = icmp ne i64 %26, %24
  br label %flushbuffer.exit.i

flushbuffer.exit.i:                               ; preds = %21, %.flushbuffer.exit_crit_edge.i
  %30 = phi i32 [ %.pre.i, %.flushbuffer.exit_crit_edge.i ], [ %29, %21 ]
  %31 = phi i1 [ %19, %.flushbuffer.exit_crit_edge.i ], [ %.not.i.i, %21 ]
  %32 = select i1 %31, i32 -1, i32 %30
  br label %pg_vfprintf.exit

pg_vfprintf.exit:                                 ; preds = %7, %flushbuffer.exit.i
  %.0.i = phi i32 [ -1, %7 ], [ %32, %flushbuffer.exit.i ]
  call void @llvm.lifetime.end.p0(i64 1024, ptr nonnull %4) #14
  call void @llvm.lifetime.end.p0(i64 40, ptr nonnull %3) #14
  call void @llvm.va_end.p0(ptr nonnull %5)
  call void @llvm.lifetime.end.p0(i64 24, ptr nonnull %5) #14
  ret i32 %.0.i
}